; Function Attrs: mustprogress uwtable
define dso_local void @_ZNK22cmNinjaTargetGenerator17GetObjectFilePathEPK12cmSourceFileRKNSt7__cxx1112basic_stringIcSt11char_traitsIcESaIcEEE(ptr dead_on_unwind noalias writable sret(%"class.std::__cxx11::basic_string") align 8 %0, ptr nocapture noundef nonnull readonly align 8 dereferenceable(240) %1, ptr noundef %2, ptr noundef nonnull align 8 dereferenceable(32) %3) local_unnamed_addr #3 align 2 personality ptr @__gxx_personality_v0 {
  %5 = alloca [3 x %"struct.std::pair.982"], align 8
  %6 = alloca %class.cmAlphaNum, align 8
  %7 = alloca %"class.std::__cxx11::basic_string", align 8
  %8 = getelementptr inbounds i8, ptr %1, i64 8
  %9 = load ptr, ptr %8, align 8
  %10 = tail call noundef nonnull align 8 dereferenceable(32) ptr @_ZN17cmGeneratorTarget13GetObjectNameB5cxx11EPK12cmSourceFile(ptr noundef nonnull align 8 dereferenceable(2728) %9, ptr noundef %2)
  call void @_ZNK22cmNinjaTargetGenerator16GetObjectFileDirERKNSt7__cxx1112basic_stringIcSt11char_traitsIcESaIcEEE(ptr dead_on_unwind nonnull writable sret(%"class.std::__cxx11::basic_string") align 8 %7, ptr noundef nonnull align 8 dereferenceable(240) %1, ptr noundef nonnull align 8 dereferenceable(32) %3)
  call void @llvm.lifetime.start.p0(i64 72, ptr nonnull %5)
  call void @llvm.lifetime.start.p0(i64 56, ptr nonnull %6)
  call void @llvm.experimental.noalias.scope.decl(metadata !177)
  %11 = call { i64, ptr } @_ZNKSt7__cxx1112basic_stringIcSt11char_traitsIcESaIcEEcvSt17basic_string_viewIcS2_EEv(ptr noundef nonnull align 8 dereferenceable(32) %7) #24, !noalias !180
  %12 = extractvalue { i64, ptr } %11, 0
  %13 = extractvalue { i64, ptr } %11, 1
  store i64 %12, ptr %5, align 8, !alias.scope !177, !noalias !183
  %.sroa.2.0..sroa_idx.i.i = getelementptr inbounds i8, ptr %5, i64 8
  store ptr %13, ptr %.sroa.2.0..sroa_idx.i.i, align 8, !alias.scope !177, !noalias !183
  %14 = getelementptr inbounds i8, ptr %5, i64 16
  store ptr %7, ptr %14, align 8, !alias.scope !177, !noalias !183
  %15 = getelementptr inbounds i8, ptr %5, i64 24
  store ptr null, ptr %6, align 8, !noalias !183
  %16 = getelementptr inbounds i8, ptr %6, i64 8
  %17 = getelementptr inbounds i8, ptr %6, i64 24
  store i64 1, ptr %16, align 8, !noalias !183
  %18 = getelementptr inbounds i8, ptr %6, i64 16
  store ptr %17, ptr %18, align 8, !noalias !183
  store i8 47, ptr %17, align 8, !noalias !183
  store i64 1, ptr %15, align 8, !alias.scope !184, !noalias !183
  %.sroa.2.0..sroa_idx.i7.i = getelementptr inbounds i8, ptr %5, i64 32
  store ptr %17, ptr %.sroa.2.0..sroa_idx.i7.i, align 8, !alias.scope !184, !noalias !183
  %19 = getelementptr inbounds i8, ptr %5, i64 40
  store ptr null, ptr %19, align 8, !alias.scope !184, !noalias !183
  %20 = getelementptr inbounds i8, ptr %5, i64 48
  %21 = call { i64, ptr } @_ZNKSt7__cxx1112basic_stringIcSt11char_traitsIcESaIcEEcvSt17basic_string_viewIcS2_EEv(ptr noundef nonnull align 8 dereferenceable(32) %10) #24, !noalias !183
  %22 = extractvalue { i64, ptr } %21, 0
  %23 = extractvalue { i64, ptr } %21, 1
  store i64 %22, ptr %20, align 8, !alias.scope !187, !noalias !183
  %.sroa.2.0..sroa_idx.i16.i = getelementptr inbounds i8, ptr %5, i64 56
  store ptr %23, ptr %.sroa.2.0..sroa_idx.i16.i, align 8, !alias.scope !187, !noalias !183
  %24 = getelementptr inbounds i8, ptr %5, i64 64
  store ptr null, ptr %24, align 8, !alias.scope !187, !noalias !183
  invoke void @_Z10cmCatViewsSt16initializer_listISt4pairISt17basic_string_viewIcSt11char_traitsIcEEPNSt7__cxx1112basic_stringIcS3_SaIcEEEEE(ptr dead_on_unwind writable sret(%"class.std::__cxx11::basic_string") align 8 %0, ptr nonnull %5, i64 3)
          to label %25 unwind label %26

25:                                               ; preds = %4
  call void @llvm.lifetime.end.p0(i64 72, ptr nonnull %5)
  call void @llvm.lifetime.end.p0(i64 56, ptr nonnull %6)
  call void @_ZNSt7__cxx1112basic_stringIcSt11char_traitsIcESaIcEED1Ev(ptr noundef nonnull align 8 dereferenceable(32) %7) #24
  ret void

26:                                               ; preds = %4
  %27 = landingpad { ptr, i32 }
          cleanup
  call void @_ZNSt7__cxx1112basic_stringIcSt11char_traitsIcESaIcEED1Ev(ptr noundef nonnull align 8 dereferenceable(32) %7) #24
  resume { ptr, i32 } %27
}